(lp1
(lp2
(lp3
(lp4
cnumpy.core.multiarray
scalar
p5
(cnumpy
dtype
p6
(S'f8'
I0
I1
tRp7
(I3
S'<'
NNNI-1
I-1
I0
tbS'\x00\x00\x00\x00\x00\x00i\xc0'
tRp8
aF3.230553150177002
aa(lp9
g5
(g7
S'\x00\x00\x00\x00\x00\x00i\xc0'
tRp10
aF6.4616341590881348
aaa(lp11
(lp12
g5
(g7
S'\x00\x00\x00\x00\x00\x00i\xc0'
tRp13
aF3.3028450012207031
aa(lp14
g5
(g7
S'\x00\x00\x00\x00\x00\x00i\xc0'
tRp15
aF6.4886870384216309
aaaa(dp16
S'agent'
p17
S'il_agent.Tr_AggreVaTeD_Agent'
p18
sS'max_kl'
p19
F0.01
sS'seed'
p20
I20
sS'video'
p21
I1
sS'plot'
p22
I00
sS'snapshot_every'
p23
I0
sS'hid_sizes'
p24
(lp25
I64
aI64
asS'env'
p26
S'Acrobot-v1'
p27
sS'truncate_k'
p28
I-1
sS'metadata'
p29
S''
sS'lam'
p30
F0
sS'cg_damping'
p31
F0.001
sS'activation'
p32
S'tanh'
p33
sS'outfile'
p34
S'/tmp/a.h5'
p35
sS'timestep_limit'
p36
I200
sS'parallel'
p37
I0
sS'n_iter'
p38
I2
sS'load_snapshot'
p39
S''
sS'filter'
p40
I1
sS'use_hdf'
p41
I0
sS'timesteps_per_batch'
p42
I10000
sS'gamma'
p43
F0.98999999999999999
sa.